target datalayout = "e-m:e-p270:32:32-p271:32:32-p272:64:64-i64:64-i128:128-f80:128-n8:16:32:64-S128"
target triple = "x86_64-pc-linux-gnu"

%"class.pxrInternal_v0_24__pxrReserved__::GfMatrix4f" = type { %"class.pxrInternal_v0_24__pxrReserved__::GfMatrixData" }
%"class.pxrInternal_v0_24__pxrReserved__::GfMatrixData" = type { [16 x float] }
%"class.pxrInternal_v0_24__pxrReserved__::GfVec4f" = type { [4 x float] }

; Function Attrs: mustprogress nounwind uwtable
define linkonce_odr noundef ptr @_ZN32pxrInternal_v0_24__pxrReserved__12GfMatrixDataIfLi4ELi4EEixEi(ptr noundef nonnull align 4 dereferenceable(64) %0, i32 noundef %1) #2 comdat align 2 {
  %3 = alloca ptr, align 8
  %4 = alloca i32, align 4
  store ptr %0, ptr %3, align 8
  store i32 %1, ptr %4, align 4
  %5 = load ptr, ptr %3, align 8
  %6 = getelementptr inbounds nuw %"class.pxrInternal_v0_24__pxrReserved__::GfMatrixData", ptr %5, i32 0, i32 0
  %7 = getelementptr inbounds [16 x float], ptr %6, i64 0, i64 0
  %8 = load i32, ptr %4, align 4
  %9 = mul nsw i32 %8, 4
  %10 = sext i32 %9 to i64
  %11 = getelementptr inbounds float, ptr %7, i64 %10
  ret ptr %11
}

; Function Attrs: mustprogress nounwind uwtable
define linkonce_odr noundef nonnull align 4 dereferenceable(4) ptr @_ZNK32pxrInternal_v0_24__pxrReserved__7GfVec4fixEm(ptr noundef nonnull align 4 dereferenceable(16) %0, i64 noundef %1) #2 comdat align 2 {
  %3 = alloca ptr, align 8
  %4 = alloca i64, align 8
  store ptr %0, ptr %3, align 8
  store i64 %1, ptr %4, align 8
  %5 = load ptr, ptr %3, align 8
  %6 = getelementptr inbounds nuw %"class.pxrInternal_v0_24__pxrReserved__::GfVec4f", ptr %5, i32 0, i32 0
  %7 = load i64, ptr %4, align 8
  %8 = getelementptr inbounds [4 x float], ptr %6, i64 0, i64 %7
  ret ptr %8
}

; Function Attrs: mustprogress uwtable
define noundef nonnull align 4 dereferenceable(64) ptr @_ZN32pxrInternal_v0_24__pxrReserved__10GfMatrix4f11SetDiagonalERKNS_7GfVec4fE(ptr noundef nonnull align 4 dereferenceable(64) %0, ptr noundef nonnull align 4 dereferenceable(16) %1) #0 align 2 {
  %3 = alloca ptr, align 8
  %4 = alloca ptr, align 8
  store ptr %0, ptr %3, align 8
  store ptr %1, ptr %4, align 8
  %5 = load ptr, ptr %3, align 8
  %6 = load ptr, ptr %4, align 8
  %7 = call noundef nonnull align 4 dereferenceable(4) ptr @_ZNK32pxrInternal_v0_24__pxrReserved__7GfVec4fixEm(ptr noundef nonnull align 4 dereferenceable(16) %6, i64 noundef 0)
  %8 = load float, ptr %7, align 4
  %9 = getelementptr inbounds nuw %"class.pxrInternal_v0_24__pxrReserved__::GfMatrix4f", ptr %5, i32 0, i32 0
  %10 = call noundef ptr @_ZN32pxrInternal_v0_24__pxrReserved__12GfMatrixDataIfLi4ELi4EEixEi(ptr noundef nonnull align 4 dereferenceable(64) %9, i32 noundef 0)
  %11 = getelementptr inbounds float, ptr %10, i64 0
  store float %8, ptr %11, align 4
  %12 = getelementptr inbounds nuw %"class.pxrInternal_v0_24__pxrReserved__::GfMatrix4f", ptr %5, i32 0, i32 0
  %13 = call noundef ptr @_ZN32pxrInternal_v0_24__pxrReserved__12GfMatrixDataIfLi4ELi4EEixEi(ptr noundef nonnull align 4 dereferenceable(64) %12, i32 noundef 0)
  %14 = getelementptr inbounds float, ptr %13, i64 1
  store float 0.000000e+00, ptr %14, align 4
  %15 = getelementptr inbounds nuw %"class.pxrInternal_v0_24__pxrReserved__::GfMatrix4f", ptr %5, i32 0, i32 0
  %16 = call noundef ptr @_ZN32pxrInternal_v0_24__pxrReserved__12GfMatrixDataIfLi4ELi4EEixEi(ptr noundef nonnull align 4 dereferenceable(64) %15, i32 noundef 0)
  %17 = getelementptr inbounds float, ptr %16, i64 2
  store float 0.000000e+00, ptr %17, align 4
  %18 = getelementptr inbounds nuw %"class.pxrInternal_v0_24__pxrReserved__::GfMatrix4f", ptr %5, i32 0, i32 0
  %19 = call noundef ptr @_ZN32pxrInternal_v0_24__pxrReserved__12GfMatrixDataIfLi4ELi4EEixEi(ptr noundef nonnull align 4 dereferenceable(64) %18, i32 noundef 0)
  %20 = getelementptr inbounds float, ptr %19, i64 3
  store float 0.000000e+00, ptr %20, align 4
  %21 = getelementptr inbounds nuw %"class.pxrInternal_v0_24__pxrReserved__::GfMatrix4f", ptr %5, i32 0, i32 0
  %22 = call noundef ptr @_ZN32pxrInternal_v0_24__pxrReserved__12GfMatrixDataIfLi4ELi4EEixEi(ptr noundef nonnull align 4 dereferenceable(64) %21, i32 noundef 1)
  %23 = getelementptr inbounds float, ptr %22, i64 0
  store float 0.000000e+00, ptr %23, align 4
  %24 = load ptr, ptr %4, align 8
  %25 = call noundef nonnull align 4 dereferenceable(4) ptr @_ZNK32pxrInternal_v0_24__pxrReserved__7GfVec4fixEm(ptr noundef nonnull align 4 dereferenceable(16) %24, i64 noundef 1)
  %26 = load float, ptr %25, align 4
  %27 = getelementptr inbounds nuw %"class.pxrInternal_v0_24__pxrReserved__::GfMatrix4f", ptr %5, i32 0, i32 0
  %28 = call noundef ptr @_ZN32pxrInternal_v0_24__pxrReserved__12GfMatrixDataIfLi4ELi4EEixEi(ptr noundef nonnull align 4 dereferenceable(64) %27, i32 noundef 1)
  %29 = getelementptr inbounds float, ptr %28, i64 1
  store float %26, ptr %29, align 4
  %30 = getelementptr inbounds nuw %"class.pxrInternal_v0_24__pxrReserved__::GfMatrix4f", ptr %5, i32 0, i32 0
  %31 = call noundef ptr @_ZN32pxrInternal_v0_24__pxrReserved__12GfMatrixDataIfLi4ELi4EEixEi(ptr noundef nonnull align 4 dereferenceable(64) %30, i32 noundef 1)
  %32 = getelementptr inbounds float, ptr %31, i64 2
  store float 0.000000e+00, ptr %32, align 4
  %33 = getelementptr inbounds nuw %"class.pxrInternal_v0_24__pxrReserved__::GfMatrix4f", ptr %5, i32 0, i32 0
  %34 = call noundef ptr @_ZN32pxrInternal_v0_24__pxrReserved__12GfMatrixDataIfLi4ELi4EEixEi(ptr noundef nonnull align 4 dereferenceable(64) %33, i32 noundef 1)
  %35 = getelementptr inbounds float, ptr %34, i64 3
  store float 0.000000e+00, ptr %35, align 4
  %36 = getelementptr inbounds nuw %"class.pxrInternal_v0_24__pxrReserved__::GfMatrix4f", ptr %5, i32 0, i32 0
  %37 = call noundef ptr @_ZN32pxrInternal_v0_24__pxrReserved__12GfMatrixDataIfLi4ELi4EEixEi(ptr noundef nonnull align 4 dereferenceable(64) %36, i32 noundef 2)
  %38 = getelementptr inbounds float, ptr %37, i64 0
  store float 0.000000e+00, ptr %38, align 4
  %39 = getelementptr inbounds nuw %"class.pxrInternal_v0_24__pxrReserved__::GfMatrix4f", ptr %5, i32 0, i32 0
  %40 = call noundef ptr @_ZN32pxrInternal_v0_24__pxrReserved__12GfMatrixDataIfLi4ELi4EEixEi(ptr noundef nonnull align 4 dereferenceable(64) %39, i32 noundef 2)
  %41 = getelementptr inbounds float, ptr %40, i64 1
  store float 0.000000e+00, ptr %41, align 4
  %42 = load ptr, ptr %4, align 8
  %43 = call noundef nonnull align 4 dereferenceable(4) ptr @_ZNK32pxrInternal_v0_24__pxrReserved__7GfVec4fixEm(ptr noundef nonnull align 4 dereferenceable(16) %42, i64 noundef 2)
  %44 = load float, ptr %43, align 4
  %45 = getelementptr inbounds nuw %"class.pxrInternal_v0_24__pxrReserved__::GfMatrix4f", ptr %5, i32 0, i32 0
  %46 = call noundef ptr @_ZN32pxrInternal_v0_24__pxrReserved__12GfMatrixDataIfLi4ELi4EEixEi(ptr noundef nonnull align 4 dereferenceable(64) %45, i32 noundef 2)
  %47 = getelementptr inbounds float, ptr %46, i64 2
  store float %44, ptr %47, align 4
  %48 = getelementptr inbounds nuw %"class.pxrInternal_v0_24__pxrReserved__::GfMatrix4f", ptr %5, i32 0, i32 0
  %49 = call noundef ptr @_ZN32pxrInternal_v0_24__pxrReserved__12GfMatrixDataIfLi4ELi4EEixEi(ptr noundef nonnull align 4 dereferenceable(64) %48, i32 noundef 2)
  %50 = getelementptr inbounds float, ptr %49, i64 3
  store float 0.000000e+00, ptr %50, align 4
  %51 = getelementptr inbounds nuw %"class.pxrInternal_v0_24__pxrReserved__::GfMatrix4f", ptr %5, i32 0, i32 0
  %52 = call noundef ptr @_ZN32pxrInternal_v0_24__pxrReserved__12GfMatrixDataIfLi4ELi4EEixEi(ptr noundef nonnull align 4 dereferenceable(64) %51, i32 noundef 3)
  %53 = getelementptr inbounds float, ptr %52, i64 0
  store float 0.000000e+00, ptr %53, align 4
  %54 = getelementptr inbounds nuw %"class.pxrInternal_v0_24__pxrReserved__::GfMatrix4f", ptr %5, i32 0, i32 0
  %55 = call noundef ptr @_ZN32pxrInternal_v0_24__pxrReserved__12GfMatrixDataIfLi4ELi4EEixEi(ptr noundef nonnull align 4 dereferenceable(64) %54, i32 noundef 3)
  %56 = getelementptr inbounds float, ptr %55, i64 1
  store float 0.000000e+00, ptr %56, align 4
  %57 = getelementptr inbounds nuw %"class.pxrInternal_v0_24__pxrReserved__::GfMatrix4f", ptr %5, i32 0, i32 0
  %58 = call noundef ptr @_ZN32pxrInternal_v0_24__pxrReserved__12GfMatrixDataIfLi4ELi4EEixEi(ptr noundef nonnull align 4 dereferenceable(64) %57, i32 noundef 3)
  %59 = getelementptr inbounds float, ptr %58, i64 2
  store float 0.000000e+00, ptr %59, align 4
  %60 = load ptr, ptr %4, align 8
  %61 = call noundef nonnull align 4 dereferenceable(4) ptr @_ZNK32pxrInternal_v0_24__pxrReserved__7GfVec4fixEm(ptr noundef nonnull align 4 dereferenceable(16) %60, i64 noundef 3)
  %62 = load float, ptr %61, align 4
  %63 = getelementptr inbounds nuw %"class.pxrInternal_v0_24__pxrReserved__::GfMatrix4f", ptr %5, i32 0, i32 0
  %64 = call noundef ptr @_ZN32pxrInternal_v0_24__pxrReserved__12GfMatrixDataIfLi4ELi4EEixEi(ptr noundef nonnull align 4 dereferenceable(64) %63, i32 noundef 3)
  %65 = getelementptr inbounds float, ptr %64, i64 3
  store float %62, ptr %65, align 4
  ret ptr %5
}